target datalayout = "e-m:e-p270:32:32-p271:32:32-p272:64:64-i64:64-i128:128-f80:128-n8:16:32:64-S128"
target triple = "x86_64-pc-linux-gnu"

; Function Attrs: nounwind uwtable
define i32 @Ndr_TypeNdr2Wlc(i32 noundef %0) #0 {
  %2 = alloca i32, align 4
  %3 = alloca i32, align 4
  store i32 %0, ptr %3, align 4, !tbaa !3
  %4 = load i32, ptr %3, align 4, !tbaa !3
  %5 = icmp eq i32 %4, 97
  br i1 %5, label %6, label %7

6:                                                ; preds = %1
  store i32 6, ptr %2, align 4
  br label %232

7:                                                ; preds = %1
  %8 = load i32, ptr %3, align 4, !tbaa !3
  %9 = icmp eq i32 %8, 11
  br i1 %9, label %10, label %11

10:                                               ; preds = %7
  store i32 7, ptr %2, align 4
  br label %232

11:                                               ; preds = %7
  %12 = load i32, ptr %3, align 4, !tbaa !3
  %13 = icmp eq i32 %12, 21
  br i1 %13, label %14, label %15

14:                                               ; preds = %11
  store i32 8, ptr %2, align 4
  br label %232

15:                                               ; preds = %11
  %16 = load i32, ptr %3, align 4, !tbaa !3
  %17 = icmp eq i32 %16, 69
  br i1 %17, label %18, label %19

18:                                               ; preds = %15
  store i32 9, ptr %2, align 4
  br label %232

19:                                               ; preds = %15
  %20 = load i32, ptr %3, align 4, !tbaa !3
  %21 = icmp eq i32 %20, 71
  br i1 %21, label %22, label %23

22:                                               ; preds = %19
  store i32 10, ptr %2, align 4
  br label %232

23:                                               ; preds = %19
  %24 = load i32, ptr %3, align 4, !tbaa !3
  %25 = icmp eq i32 %24, 68
  br i1 %25, label %26, label %27

26:                                               ; preds = %23
  store i32 11, ptr %2, align 4
  br label %232

27:                                               ; preds = %23
  %28 = load i32, ptr %3, align 4, !tbaa !3
  %29 = icmp eq i32 %28, 70
  br i1 %29, label %30, label %31

30:                                               ; preds = %27
  store i32 12, ptr %2, align 4
  br label %232

31:                                               ; preds = %27
  %32 = load i32, ptr %3, align 4, !tbaa !3
  %33 = icmp eq i32 %32, 73
  br i1 %33, label %34, label %35

34:                                               ; preds = %31
  store i32 13, ptr %2, align 4
  br label %232

35:                                               ; preds = %31
  %36 = load i32, ptr %3, align 4, !tbaa !3
  %37 = icmp eq i32 %36, 72
  br i1 %37, label %38, label %39

38:                                               ; preds = %35
  store i32 14, ptr %2, align 4
  br label %232

39:                                               ; preds = %35
  %40 = load i32, ptr %3, align 4, !tbaa !3
  %41 = icmp eq i32 %40, 12
  br i1 %41, label %42, label %43

42:                                               ; preds = %39
  store i32 15, ptr %2, align 4
  br label %232

43:                                               ; preds = %39
  %44 = load i32, ptr %3, align 4, !tbaa !3
  %45 = icmp eq i32 %44, 13
  br i1 %45, label %46, label %47

46:                                               ; preds = %43
  store i32 16, ptr %2, align 4
  br label %232

47:                                               ; preds = %43
  %48 = load i32, ptr %3, align 4, !tbaa !3
  %49 = icmp eq i32 %48, 15
  br i1 %49, label %50, label %51

50:                                               ; preds = %47
  store i32 17, ptr %2, align 4
  br label %232

51:                                               ; preds = %47
  %52 = load i32, ptr %3, align 4, !tbaa !3
  %53 = icmp eq i32 %52, 17
  br i1 %53, label %54, label %55

54:                                               ; preds = %51
  store i32 18, ptr %2, align 4
  br label %232

55:                                               ; preds = %51
  %56 = load i32, ptr %3, align 4, !tbaa !3
  %57 = icmp eq i32 %56, 14
  br i1 %57, label %58, label %59

58:                                               ; preds = %55
  store i32 19, ptr %2, align 4
  br label %232

59:                                               ; preds = %55
  %60 = load i32, ptr %3, align 4, !tbaa !3
  %61 = icmp eq i32 %60, 16
  br i1 %61, label %62, label %63

62:                                               ; preds = %59
  store i32 20, ptr %2, align 4
  br label %232

63:                                               ; preds = %59
  %64 = load i32, ptr %3, align 4, !tbaa !3
  %65 = icmp eq i32 %64, 18
  br i1 %65, label %66, label %67

66:                                               ; preds = %63
  store i32 21, ptr %2, align 4
  br label %232

67:                                               ; preds = %63
  %68 = load i32, ptr %3, align 4, !tbaa !3
  %69 = icmp eq i32 %68, 91
  br i1 %69, label %70, label %71

70:                                               ; preds = %67
  store i32 22, ptr %2, align 4
  br label %232

71:                                               ; preds = %67
  %72 = load i32, ptr %3, align 4, !tbaa !3
  %73 = icmp eq i32 %72, 92
  br i1 %73, label %74, label %75

74:                                               ; preds = %71
  store i32 23, ptr %2, align 4
  br label %232

75:                                               ; preds = %71
  %76 = load i32, ptr %3, align 4, !tbaa !3
  %77 = icmp eq i32 %76, 93
  br i1 %77, label %78, label %79

78:                                               ; preds = %75
  store i32 24, ptr %2, align 4
  br label %232

79:                                               ; preds = %75
  %80 = load i32, ptr %3, align 4, !tbaa !3
  %81 = icmp eq i32 %80, 94
  br i1 %81, label %82, label %83

82:                                               ; preds = %79
  store i32 25, ptr %2, align 4
  br label %232

83:                                               ; preds = %79
  %84 = load i32, ptr %3, align 4, !tbaa !3
  %85 = icmp eq i32 %84, 36
  br i1 %85, label %86, label %87

86:                                               ; preds = %83
  store i32 26, ptr %2, align 4
  br label %232

87:                                               ; preds = %83
  %88 = load i32, ptr %3, align 4, !tbaa !3
  %89 = icmp eq i32 %88, 95
  br i1 %89, label %90, label %91

90:                                               ; preds = %87
  store i32 27, ptr %2, align 4
  br label %232

91:                                               ; preds = %87
  %92 = load i32, ptr %3, align 4, !tbaa !3
  %93 = icmp eq i32 %92, 37
  br i1 %93, label %94, label %95

94:                                               ; preds = %91
  store i32 28, ptr %2, align 4
  br label %232

95:                                               ; preds = %91
  %96 = load i32, ptr %3, align 4, !tbaa !3
  %97 = icmp eq i32 %96, 39
  br i1 %97, label %98, label %99

98:                                               ; preds = %95
  store i32 29, ptr %2, align 4
  br label %232

99:                                               ; preds = %95
  %100 = load i32, ptr %3, align 4, !tbaa !3
  %101 = icmp eq i32 %100, 41
  br i1 %101, label %102, label %103

102:                                              ; preds = %99
  store i32 30, ptr %2, align 4
  br label %232

103:                                              ; preds = %99
  %104 = load i32, ptr %3, align 4, !tbaa !3
  %105 = icmp eq i32 %104, 43
  br i1 %105, label %106, label %107

106:                                              ; preds = %103
  store i32 8, ptr %2, align 4
  br label %232

107:                                              ; preds = %103
  %108 = load i32, ptr %3, align 4, !tbaa !3
  %109 = icmp eq i32 %108, 44
  br i1 %109, label %110, label %111

110:                                              ; preds = %107
  store i32 57, ptr %2, align 4
  br label %232

111:                                              ; preds = %107
  %112 = load i32, ptr %3, align 4, !tbaa !3
  %113 = icmp eq i32 %112, 48
  br i1 %113, label %114, label %115

114:                                              ; preds = %111
  store i32 58, ptr %2, align 4
  br label %232

115:                                              ; preds = %111
  %116 = load i32, ptr %3, align 4, !tbaa !3
  %117 = icmp eq i32 %116, 66
  br i1 %117, label %118, label %119

118:                                              ; preds = %115
  store i32 31, ptr %2, align 4
  br label %232

119:                                              ; preds = %115
  %120 = load i32, ptr %3, align 4, !tbaa !3
  %121 = icmp eq i32 %120, 67
  br i1 %121, label %122, label %123

122:                                              ; preds = %119
  store i32 32, ptr %2, align 4
  br label %232

123:                                              ; preds = %119
  %124 = load i32, ptr %3, align 4, !tbaa !3
  %125 = icmp eq i32 %124, 62
  br i1 %125, label %126, label %127

126:                                              ; preds = %123
  store i32 33, ptr %2, align 4
  br label %232

127:                                              ; preds = %123
  %128 = load i32, ptr %3, align 4, !tbaa !3
  %129 = icmp eq i32 %128, 65
  br i1 %129, label %130, label %131

130:                                              ; preds = %127
  store i32 34, ptr %2, align 4
  br label %232

131:                                              ; preds = %127
  %132 = load i32, ptr %3, align 4, !tbaa !3
  %133 = icmp eq i32 %132, 63
  br i1 %133, label %134, label %135

134:                                              ; preds = %131
  store i32 35, ptr %2, align 4
  br label %232

135:                                              ; preds = %131
  %136 = load i32, ptr %3, align 4, !tbaa !3
  %137 = icmp eq i32 %136, 64
  br i1 %137, label %138, label %139

138:                                              ; preds = %135
  store i32 36, ptr %2, align 4
  br label %232

139:                                              ; preds = %135
  %140 = load i32, ptr %3, align 4, !tbaa !3
  %141 = icmp eq i32 %140, 30
  br i1 %141, label %142, label %143

142:                                              ; preds = %139
  store i32 37, ptr %2, align 4
  br label %232

143:                                              ; preds = %139
  %144 = load i32, ptr %3, align 4, !tbaa !3
  %145 = icmp eq i32 %144, 32
  br i1 %145, label %146, label %147

146:                                              ; preds = %143
  store i32 38, ptr %2, align 4
  br label %232

147:                                              ; preds = %143
  %148 = load i32, ptr %3, align 4, !tbaa !3
  %149 = icmp eq i32 %148, 34
  br i1 %149, label %150, label %151

150:                                              ; preds = %147
  store i32 39, ptr %2, align 4
  br label %232

151:                                              ; preds = %147
  %152 = load i32, ptr %3, align 4, !tbaa !3
  %153 = icmp eq i32 %152, 31
  br i1 %153, label %154, label %155

154:                                              ; preds = %151
  store i32 40, ptr %2, align 4
  br label %232

155:                                              ; preds = %151
  %156 = load i32, ptr %3, align 4, !tbaa !3
  %157 = icmp eq i32 %156, 33
  br i1 %157, label %158, label %159

158:                                              ; preds = %155
  store i32 41, ptr %2, align 4
  br label %232

159:                                              ; preds = %155
  %160 = load i32, ptr %3, align 4, !tbaa !3
  %161 = icmp eq i32 %160, 35
  br i1 %161, label %162, label %163

162:                                              ; preds = %159
  store i32 42, ptr %2, align 4
  br label %232

163:                                              ; preds = %159
  %164 = load i32, ptr %3, align 4, !tbaa !3
  %165 = icmp eq i32 %164, 50
  br i1 %165, label %166, label %167

166:                                              ; preds = %163
  store i32 43, ptr %2, align 4
  br label %232

167:                                              ; preds = %163
  %168 = load i32, ptr %3, align 4, !tbaa !3
  %169 = icmp eq i32 %168, 51
  br i1 %169, label %170, label %171

170:                                              ; preds = %167
  store i32 44, ptr %2, align 4
  br label %232

171:                                              ; preds = %167
  %172 = load i32, ptr %3, align 4, !tbaa !3
  %173 = icmp eq i32 %172, 52
  br i1 %173, label %174, label %175

174:                                              ; preds = %171
  store i32 45, ptr %2, align 4
  br label %232

175:                                              ; preds = %171
  %176 = load i32, ptr %3, align 4, !tbaa !3
  %177 = icmp eq i32 %176, 54
  br i1 %177, label %178, label %179

178:                                              ; preds = %175
  store i32 46, ptr %2, align 4
  br label %232

179:                                              ; preds = %175
  %180 = load i32, ptr %3, align 4, !tbaa !3
  %181 = icmp eq i32 %180, 56
  br i1 %181, label %182, label %183

182:                                              ; preds = %179
  store i32 47, ptr %2, align 4
  br label %232

183:                                              ; preds = %179
  %184 = load i32, ptr %3, align 4, !tbaa !3
  %185 = icmp eq i32 %184, 55
  br i1 %185, label %186, label %187

186:                                              ; preds = %183
  store i32 48, ptr %2, align 4
  br label %232

187:                                              ; preds = %183
  %188 = load i32, ptr %3, align 4, !tbaa !3
  %189 = icmp eq i32 %188, 57
  br i1 %189, label %190, label %191

190:                                              ; preds = %187
  store i32 49, ptr %2, align 4
  br label %232

191:                                              ; preds = %187
  %192 = load i32, ptr %3, align 4, !tbaa !3
  %193 = icmp eq i32 %192, 58
  br i1 %193, label %194, label %195

194:                                              ; preds = %191
  store i32 50, ptr %2, align 4
  br label %232

195:                                              ; preds = %191
  %196 = load i32, ptr %3, align 4, !tbaa !3
  %197 = icmp eq i32 %196, 59
  br i1 %197, label %198, label %199

198:                                              ; preds = %195
  store i32 51, ptr %2, align 4
  br label %232

199:                                              ; preds = %195
  %200 = load i32, ptr %3, align 4, !tbaa !3
  %201 = icmp eq i32 %200, 96
  br i1 %201, label %202, label %203

202:                                              ; preds = %199
  store i32 52, ptr %2, align 4
  br label %232

203:                                              ; preds = %199
  %204 = load i32, ptr %3, align 4, !tbaa !3
  %205 = icmp eq i32 %204, 98
  br i1 %205, label %206, label %207

206:                                              ; preds = %203
  store i32 56, ptr %2, align 4
  br label %232

207:                                              ; preds = %203
  %208 = load i32, ptr %3, align 4, !tbaa !3
  %209 = icmp eq i32 %208, 53
  br i1 %209, label %210, label %211

210:                                              ; preds = %207
  store i32 45, ptr %2, align 4
  br label %232

211:                                              ; preds = %207
  %212 = load i32, ptr %3, align 4, !tbaa !3
  %213 = icmp eq i32 %212, 88
  br i1 %213, label %214, label %215

214:                                              ; preds = %211
  store i32 3, ptr %2, align 4
  br label %232

215:                                              ; preds = %211
  %216 = load i32, ptr %3, align 4, !tbaa !3
  %217 = icmp eq i32 %216, 89
  br i1 %217, label %218, label %219

218:                                              ; preds = %215
  store i32 5, ptr %2, align 4
  br label %232

219:                                              ; preds = %215
  %220 = load i32, ptr %3, align 4, !tbaa !3
  %221 = icmp eq i32 %220, 80
  br i1 %221, label %222, label %223

222:                                              ; preds = %219
  store i32 54, ptr %2, align 4
  br label %232

223:                                              ; preds = %219
  %224 = load i32, ptr %3, align 4, !tbaa !3
  %225 = icmp eq i32 %224, 81
  br i1 %225, label %226, label %227

226:                                              ; preds = %223
  store i32 55, ptr %2, align 4
  br label %232

227:                                              ; preds = %223
  %228 = load i32, ptr %3, align 4, !tbaa !3
  %229 = icmp eq i32 %228, 75
  br i1 %229, label %230, label %231

230:                                              ; preds = %227
  store i32 59, ptr %2, align 4
  br label %232

231:                                              ; preds = %227
  store i32 -1, ptr %2, align 4
  br label %232

232:                                              ; preds = %231, %230, %226, %222, %218, %214, %210, %206, %202, %198, %194, %190, %186, %182, %178, %174, %170, %166, %162, %158, %154, %150, %146, %142, %138, %134, %130, %126, %122, %118, %114, %110, %106, %102, %98, %94, %90, %86, %82, %78, %74, %70, %66, %62, %58, %54, %50, %46, %42, %38, %34, %30, %26, %22, %18, %14, %10, %6
  %233 = load i32, ptr %2, align 4
  ret i32 %233
}